; Function Attrs: mustprogress nofree norecurse nosync nounwind willreturn memory(none) uwtable
define dso_local noundef zeroext i1 @_ZN15StatementAssign21AssignOpWorksForFloatE10eAssignOps(i32 noundef %0) local_unnamed_addr #5 align 2 {
  %2 = icmp ult i32 %0, 6
  %switch.cast = trunc i32 %0 to i6
  %switch.downshift = lshr i6 -9, %switch.cast
  %3 = and i6 %switch.downshift, 1
  %switch.masked = icmp ne i6 %3, 0
  %.0 = select i1 %2, i1 %switch.masked, i1 false
  ret i1 %.0
}